; Function Attrs: nounwind uwtable
define dso_local ptr @ExecGetRangeTableRelation(ptr noundef readonly captures(none) %0, i32 noundef %1) local_unnamed_addr #0 {
  %3 = getelementptr inbounds nuw i8, ptr %0, i64 40
  %4 = load ptr, ptr %3, align 8
  %5 = add i32 %1, -1
  %6 = zext i32 %5 to i64
  %7 = getelementptr inbounds nuw ptr, ptr %4, i64 %6
  %8 = load ptr, ptr %7, align 8
  %9 = icmp eq ptr %8, null
  br i1 %9, label %10, label %27

10:                                               ; preds = %2
  %11 = getelementptr i8, ptr %0, i64 24
  %.val = load ptr, ptr %11, align 8
  %12 = getelementptr i8, ptr %.val, i64 16
  %.val.val = load ptr, ptr %12, align 8
  %13 = sext i32 %5 to i64
  %14 = getelementptr inbounds %union.ListCell, ptr %.val.val, i64 %13
  %15 = load ptr, ptr %14, align 8
  %16 = load i32, ptr @ParallelWorkerNumber, align 4
  %17 = icmp sgt i32 %16, -1
  %18 = getelementptr inbounds nuw i8, ptr %15, i64 28
  %19 = load i32, ptr %18, align 4
  br i1 %17, label %20, label %23

20:                                               ; preds = %10
  %21 = getelementptr inbounds nuw i8, ptr %15, i64 36
  %22 = load i32, ptr %21, align 4
  br label %23

23:                                               ; preds = %10, %20
  %.sink = phi i32 [ %22, %20 ], [ 0, %10 ]
  %24 = tail call ptr @table_open(i32 noundef %19, i32 noundef %.sink) #12
  %25 = load ptr, ptr %3, align 8
  %26 = getelementptr inbounds nuw ptr, ptr %25, i64 %6
  store ptr %24, ptr %26, align 8
  br label %27

27:                                               ; preds = %23, %2
  %.0 = phi ptr [ %24, %23 ], [ %8, %2 ]
  ret ptr %.0
}